target datalayout = "e-m:e-p270:32:32-p271:32:32-p272:64:64-i64:64-i128:128-f80:128-n8:16:32:64-S128"
target triple = "x86_64-pc-linux-gnu"

%struct.archive_read_filter = type { i64, ptr, ptr, ptr, ptr, ptr, ptr, i32, i32, i32, ptr, i64, ptr, i64, ptr, i64, ptr, i64, i8, i8, i8 }
%struct.uudecode = type { i64, ptr, i64, i64, ptr, i32, i32, i32, ptr }

; Function Attrs: nounwind uwtable
define internal i32 @uudecode_read_header(ptr noundef %0, ptr noundef %1) #0 {
  %3 = alloca ptr, align 8
  %4 = alloca ptr, align 8
  %5 = alloca ptr, align 8
  store ptr %0, ptr %3, align 8, !tbaa !13
  store ptr %1, ptr %4, align 8, !tbaa !55
  call void @llvm.lifetime.start.p0(i64 8, ptr %5) #8
  %6 = load ptr, ptr %3, align 8, !tbaa !13
  %7 = getelementptr inbounds nuw %struct.archive_read_filter, ptr %6, i32 0, i32 5
  %8 = load ptr, ptr %7, align 8, !tbaa !33
  store ptr %8, ptr %5, align 8, !tbaa !29
  %9 = load ptr, ptr %5, align 8, !tbaa !29
  %10 = getelementptr inbounds nuw %struct.uudecode, ptr %9, i32 0, i32 7
  %11 = load i32, ptr %10, align 8, !tbaa !40
  %12 = icmp ne i32 %11, 0
  br i1 %12, label %13, label %19

13:                                               ; preds = %2
  %14 = load ptr, ptr %4, align 8, !tbaa !55
  %15 = load ptr, ptr %5, align 8, !tbaa !29
  %16 = getelementptr inbounds nuw %struct.uudecode, ptr %15, i32 0, i32 6
  %17 = load i32, ptr %16, align 4, !tbaa !51
  %18 = or i32 32768, %17
  call void @archive_entry_set_mode(ptr noundef %14, i32 noundef %18)
  br label %19

19:                                               ; preds = %13, %2
  %20 = load ptr, ptr %5, align 8, !tbaa !29
  %21 = getelementptr inbounds nuw %struct.uudecode, ptr %20, i32 0, i32 8
  %22 = load ptr, ptr %21, align 8, !tbaa !41
  %23 = icmp ne ptr %22, null
  br i1 %23, label %24, label %29

24:                                               ; preds = %19
  %25 = load ptr, ptr %4, align 8, !tbaa !55
  %26 = load ptr, ptr %5, align 8, !tbaa !29
  %27 = getelementptr inbounds nuw %struct.uudecode, ptr %26, i32 0, i32 8
  %28 = load ptr, ptr %27, align 8, !tbaa !41
  call void @archive_entry_set_pathname(ptr noundef %25, ptr noundef %28)
  br label %29

29:                                               ; preds = %24, %19
  call void @llvm.lifetime.end.p0(i64 8, ptr %5) #8
  ret i32 0
}