; Function Attrs: nounwind uwtable
define internal noundef i32 @uudecode_read_header(ptr noundef readonly captures(none) %0, ptr noundef %1) #0 {
  %3 = getelementptr inbounds nuw i8, ptr %0, i64 40
  %4 = load ptr, ptr %3, align 8, !tbaa !24
  %5 = getelementptr inbounds nuw i8, ptr %4, i64 48
  %6 = load i32, ptr %5, align 8, !tbaa !38
  %.not = icmp eq i32 %6, 0
  br i1 %.not, label %11, label %7

7:                                                ; preds = %2
  %8 = getelementptr inbounds nuw i8, ptr %4, i64 44
  %9 = load i32, ptr %8, align 4, !tbaa !37
  %10 = or i32 %9, 32768
  tail call void @archive_entry_set_mode(ptr noundef %1, i32 noundef %10) #10
  br label %11

11:                                               ; preds = %7, %2
  %12 = getelementptr inbounds nuw i8, ptr %4, i64 56
  %13 = load ptr, ptr %12, align 8, !tbaa !39
  %.not7 = icmp eq ptr %13, null
  br i1 %.not7, label %15, label %14

14:                                               ; preds = %11
  tail call void @archive_entry_set_pathname(ptr noundef %1, ptr noundef nonnull %13) #10
  br label %15

15:                                               ; preds = %14, %11
  ret i32 0
}